target datalayout = "e-m:e-p270:32:32-p271:32:32-p272:64:64-i64:64-i128:128-f80:128-n8:16:32:64-S128"
target triple = "x86_64-pc-linux-gnu"

%struct._output_fields = type { i8, i8, i8, i8, i8, ptr, ptr, ptr, ptr, ptr, i8, i8, i8 }

@.str.38 = private unnamed_addr constant [9 x i8] c"_ws.col.\00", align 1

; Function Attrs: null_pointer_is_valid sspstrong uwtable
define zeroext i1 @output_fields_add_protocolfilter(ptr noundef %0, ptr noundef %1, i32 noundef %2) #0 {
  %4 = alloca ptr, align 8
  %5 = alloca ptr, align 8
  %6 = alloca i32, align 4
  %7 = alloca ptr, align 8
  %8 = alloca i8, align 1
  store ptr %0, ptr %4, align 8
  store ptr %1, ptr %5, align 8
  store i32 %2, ptr %6, align 4
  call void @llvm.lifetime.start.p0(i64 8, ptr %7) #15
  call void @llvm.lifetime.start.p0(i64 1, ptr %8) #15
  store i8 1, ptr %8, align 1
  %9 = load ptr, ptr %4, align 8
  %10 = getelementptr inbounds nuw %struct._output_fields, ptr %9, i32 0, i32 9
  %11 = load ptr, ptr %10, align 8
  %12 = icmp ne ptr %11, null
  br i1 %12, label %18, label %13

13:                                               ; preds = %3
  %14 = call ptr @wmem_epan_scope()
  %15 = call noalias ptr @wmem_map_new(ptr noundef %14, ptr noundef @wmem_str_hash, ptr noundef @g_str_equal)
  %16 = load ptr, ptr %4, align 8
  %17 = getelementptr inbounds nuw %struct._output_fields, ptr %16, i32 0, i32 9
  store ptr %15, ptr %17, align 8
  br label %18

18:                                               ; preds = %13, %3
  %19 = load ptr, ptr %4, align 8
  %20 = getelementptr inbounds nuw %struct._output_fields, ptr %19, i32 0, i32 9
  %21 = load ptr, ptr %20, align 8
  %22 = load ptr, ptr %5, align 8
  %23 = call zeroext i1 @wmem_map_lookup_extended(ptr noundef %21, ptr noundef %22, ptr noundef null, ptr noundef %7)
  br i1 %23, label %24, label %32

24:                                               ; preds = %18
  %25 = load ptr, ptr %7, align 8
  %26 = ptrtoint ptr %25 to i64
  %27 = trunc i64 %26 to i32
  %28 = load i32, ptr %6, align 4
  %29 = icmp ne i32 %27, %28
  br i1 %29, label %30, label %31

30:                                               ; preds = %24
  store i8 0, ptr %8, align 1
  br label %31

31:                                               ; preds = %30, %24
  br label %32

32:                                               ; preds = %31, %18
  %33 = load ptr, ptr %4, align 8
  %34 = getelementptr inbounds nuw %struct._output_fields, ptr %33, i32 0, i32 9
  %35 = load ptr, ptr %34, align 8
  %36 = load ptr, ptr %5, align 8
  %37 = load i32, ptr %6, align 4
  %38 = zext i32 %37 to i64
  %39 = inttoptr i64 %38 to ptr
  %40 = call ptr @wmem_map_insert(ptr noundef %35, ptr noundef %36, ptr noundef %39)
  %41 = load ptr, ptr %5, align 8
  %42 = call i32 @strncmp(ptr noundef %41, ptr noundef @.str.38, i64 noundef 8) #16
  %43 = icmp ne i32 %42, 0
  br i1 %43, label %47, label %44

44:                                               ; preds = %32
  %45 = load ptr, ptr %4, align 8
  %46 = getelementptr inbounds nuw %struct._output_fields, ptr %45, i32 0, i32 12
  store i8 1, ptr %46, align 2
  br label %47

47:                                               ; preds = %44, %32
  %48 = load i8, ptr %8, align 1, !range !6, !noundef !7
  %49 = trunc i8 %48 to i1
  call void @llvm.lifetime.end.p0(i64 1, ptr %8) #15
  call void @llvm.lifetime.end.p0(i64 8, ptr %7) #15
  ret i1 %49
}