; Function Attrs: null_pointer_is_valid sspstrong uwtable
define zeroext i1 @output_fields_add_protocolfilter(ptr noundef captures(none) %0, ptr noundef %1, i32 noundef %2) local_unnamed_addr #0 {
  %4 = alloca ptr, align 8
  call void @llvm.lifetime.start.p0(i64 8, ptr nonnull %4) #21
  %5 = getelementptr inbounds nuw i8, ptr %0, i64 40
  %6 = load ptr, ptr %5, align 8
  %.not = icmp eq ptr %6, null
  br i1 %.not, label %7, label %10

7:                                                ; preds = %3
  %8 = tail call ptr @wmem_epan_scope()
  %9 = tail call noalias ptr @wmem_map_new(ptr noundef %8, ptr noundef nonnull @wmem_str_hash, ptr noundef nonnull @g_str_equal)
  store ptr %9, ptr %5, align 8
  br label %10

10:                                               ; preds = %7, %3
  %11 = phi ptr [ %9, %7 ], [ %6, %3 ]
  %12 = call zeroext i1 @wmem_map_lookup_extended(ptr noundef %11, ptr noundef %1, ptr noundef null, ptr noundef nonnull %4)
  %13 = load ptr, ptr %4, align 8
  %14 = load ptr, ptr %5, align 8
  %15 = zext i32 %2 to i64
  %16 = inttoptr i64 %15 to ptr
  %17 = call ptr @wmem_map_insert(ptr noundef %14, ptr noundef %1, ptr noundef %16)
  %18 = call i32 @strncmp(ptr noundef %1, ptr noundef nonnull dereferenceable(9) @.str.38, i64 noundef 8) #22
  %.not11 = icmp eq i32 %18, 0
  br i1 %.not11, label %19, label %21

19:                                               ; preds = %10
  %20 = getelementptr inbounds nuw i8, ptr %0, i64 50
  store i8 1, ptr %20, align 2
  br label %21

21:                                               ; preds = %19, %10
  %.not12 = xor i1 %12, true
  %22 = ptrtoint ptr %13 to i64
  %23 = trunc i64 %22 to i32
  %.not10 = icmp eq i32 %2, %23
  %or.cond = select i1 %.not12, i1 true, i1 %.not10
  call void @llvm.lifetime.end.p0(i64 8, ptr nonnull %4) #21
  ret i1 %or.cond
}